; Function Attrs: mustprogress nofree norecurse nosync nounwind willreturn memory(argmem: read) uwtable
define internal range(i32 0, 2) i32 @CorrelCompare(ptr noundef readonly captures(none) %0, ptr noundef readonly captures(none) %1) #2 {
  %3 = load ptr, ptr %0, align 8
  %4 = load ptr, ptr %1, align 8
  %.not = icmp eq ptr %3, %4
  br i1 %.not, label %5, label %10

5:                                                ; preds = %2
  %6 = getelementptr inbounds nuw i8, ptr %0, i64 8
  %7 = load ptr, ptr %6, align 8
  %8 = getelementptr inbounds nuw i8, ptr %1, i64 8
  %9 = load ptr, ptr %8, align 8
  %.not6 = icmp ne ptr %7, %9
  %spec.select = zext i1 %.not6 to i32
  br label %10

10:                                               ; preds = %5, %2
  %.0 = phi i32 [ 1, %2 ], [ %spec.select, %5 ]
  ret i32 %.0
}